; Function Attrs: mustprogress uwtable
define dso_local void @_ZNSt3__14__fs10filesystem14__copy_symlinkERKNS1_4pathES4_PNS_10error_codeE(ptr noundef nonnull align 8 dereferenceable(24) %0, ptr noundef nonnull align 8 dereferenceable(24) %1, ptr noundef %2) local_unnamed_addr #0 personality ptr @__gxx_personality_v0 {
  %4 = alloca %"class.std::__1::__fs::filesystem::path", align 8
  call void @llvm.lifetime.start.p0(i64 24, ptr nonnull %4) #28
  call void @_ZNSt3__14__fs10filesystem14__read_symlinkERKNS1_4pathEPNS_10error_codeE(ptr dead_on_unwind nonnull writable sret(%"class.std::__1::__fs::filesystem::path") align 8 %4, ptr noundef nonnull align 8 dereferenceable(24) %0, ptr noundef %2)
  %.not = icmp eq ptr %2, null
  br i1 %.not, label %7, label %5

5:                                                ; preds = %3
  %6 = load i32, ptr %2, align 8, !tbaa !8
  %.not9 = icmp eq i32 %6, 0
  br i1 %.not9, label %7, label %8

7:                                                ; preds = %5, %3
  invoke void @_ZNSt3__14__fs10filesystem16__create_symlinkERKNS1_4pathES4_PNS_10error_codeE(ptr noundef nonnull align 8 dereferenceable(24) %4, ptr noundef nonnull align 8 dereferenceable(24) %1, ptr noundef %2)
          to label %8 unwind label %16

8:                                                ; preds = %7, %5
  %9 = load i8, ptr %4, align 8
  %10 = and i8 %9, 1
  %.not.i.i = icmp eq i8 %10, 0
  br i1 %.not.i.i, label %_ZNSt3__14__fs10filesystem4pathD2B8ne210000Ev.exit, label %11

11:                                               ; preds = %8
  %12 = getelementptr inbounds nuw i8, ptr %4, i64 16
  %13 = load ptr, ptr %12, align 8, !tbaa !5
  %14 = load i64, ptr %4, align 8
  %15 = and i64 %14, -2
  call void @_ZdlPvm(ptr noundef %13, i64 noundef %15) #29
  br label %_ZNSt3__14__fs10filesystem4pathD2B8ne210000Ev.exit

_ZNSt3__14__fs10filesystem4pathD2B8ne210000Ev.exit: ; preds = %8, %11
  call void @llvm.lifetime.end.p0(i64 24, ptr nonnull %4) #28
  ret void

16:                                               ; preds = %7
  %17 = landingpad { ptr, i32 }
          cleanup
  %18 = load i8, ptr %4, align 8
  %19 = and i8 %18, 1
  %.not.i.i7 = icmp eq i8 %19, 0
  br i1 %.not.i.i7, label %_ZNSt3__14__fs10filesystem4pathD2B8ne210000Ev.exit8, label %20

20:                                               ; preds = %16
  %21 = getelementptr inbounds nuw i8, ptr %4, i64 16
  %22 = load ptr, ptr %21, align 8, !tbaa !5
  %23 = load i64, ptr %4, align 8
  %24 = and i64 %23, -2
  call void @_ZdlPvm(ptr noundef %22, i64 noundef %24) #29
  br label %_ZNSt3__14__fs10filesystem4pathD2B8ne210000Ev.exit8

_ZNSt3__14__fs10filesystem4pathD2B8ne210000Ev.exit8: ; preds = %16, %20
  call void @llvm.lifetime.end.p0(i64 24, ptr nonnull %4) #28
  resume { ptr, i32 } %17
}